target datalayout = "e-m:e-p270:32:32-p271:32:32-p272:64:64-i64:64-i128:128-f80:128-n8:16:32:64-S128"
target triple = "x86_64-pc-linux-gnu"

%"struct.std::array" = type { [2 x i64] }
%"class.arrow::GenericBasicDecimal" = type { %"struct.std::array" }
%"class.arrow::BasicDecimal128" = type { %"class.arrow::GenericBasicDecimal" }

; Function Attrs: mustprogress nounwind uwtable
define linkonce_odr noundef ptr @_ZNSt14__array_traitsImLm2EE6_S_ptrERA2_Km(ptr noundef nonnull align 8 dereferenceable(16) %0) #0 comdat align 2 {
  %2 = alloca ptr, align 8
  store ptr %0, ptr %2, align 8, !tbaa !239
  %3 = load ptr, ptr %2, align 8, !tbaa !239
  %4 = getelementptr inbounds [2 x i64], ptr %3, i64 0, i64 0
  ret ptr %4
}

; Function Attrs: mustprogress nounwind willreturn memory(none) uwtable
define linkonce_odr noundef ptr @_ZNSt5arrayImLm2EE4dataEv(ptr noundef nonnull align 8 dereferenceable(16) %0) #5 comdat align 2 {
  %2 = alloca ptr, align 8
  store ptr %0, ptr %2, align 8, !tbaa !10
  %3 = load ptr, ptr %2, align 8
  %4 = getelementptr inbounds nuw %"struct.std::array", ptr %3, i32 0, i32 0
  %5 = call noundef ptr @_ZNSt14__array_traitsImLm2EE6_S_ptrERA2_Km(ptr noundef nonnull align 8 dereferenceable(16) %4) #12
  ret ptr %5
}

; Function Attrs: mustprogress nounwind uwtable
define linkonce_odr noundef nonnull align 8 dereferenceable(8) ptr @_ZNSt5arrayImLm2EEixEm(ptr noundef nonnull align 8 dereferenceable(16) %0, i64 noundef %1) #0 comdat align 2 {
  %3 = alloca ptr, align 8
  %4 = alloca i64, align 8
  store ptr %0, ptr %3, align 8, !tbaa !10
  store i64 %1, ptr %4, align 8, !tbaa !8
  %5 = load ptr, ptr %3, align 8
  %6 = getelementptr inbounds nuw %"struct.std::array", ptr %5, i32 0, i32 0
  %7 = load i64, ptr %4, align 8, !tbaa !8
  %8 = call noundef nonnull align 8 dereferenceable(8) ptr @_ZNSt14__array_traitsImLm2EE6_S_refERA2_Kmm(ptr noundef nonnull align 8 dereferenceable(16) %6, i64 noundef %7) #12
  ret ptr %8
}

; Function Attrs: mustprogress nounwind willreturn memory(none) uwtable
define linkonce_odr noundef ptr @_ZNSt5arrayImLm2EE3endEv(ptr noundef nonnull align 8 dereferenceable(16) %0) #5 comdat align 2 {
  %2 = alloca ptr, align 8
  store ptr %0, ptr %2, align 8, !tbaa !10
  %3 = load ptr, ptr %2, align 8
  %4 = call noundef ptr @_ZNSt5arrayImLm2EE4dataEv(ptr noundef nonnull align 8 dereferenceable(16) %3) #14
  %5 = getelementptr inbounds nuw i64, ptr %4, i64 2
  ret ptr %5
}

; Function Attrs: mustprogress nounwind willreturn memory(none) uwtable
define linkonce_odr noundef ptr @_ZNSt5arrayImLm2EE5beginEv(ptr noundef nonnull align 8 dereferenceable(16) %0) #5 comdat align 2 {
  %2 = alloca ptr, align 8
  store ptr %0, ptr %2, align 8, !tbaa !10
  %3 = load ptr, ptr %2, align 8
  %4 = call noundef ptr @_ZNSt5arrayImLm2EE4dataEv(ptr noundef nonnull align 8 dereferenceable(16) %3) #14
  ret ptr %4
}

; Function Attrs: mustprogress nounwind uwtable
define linkonce_odr noundef nonnull align 8 dereferenceable(8) ptr @_ZNSt14__array_traitsImLm2EE6_S_refERA2_Kmm(ptr noundef nonnull align 8 dereferenceable(16) %0, i64 noundef %1) #0 comdat align 2 {
  %3 = alloca ptr, align 8
  %4 = alloca i64, align 8
  store ptr %0, ptr %3, align 8, !tbaa !239
  store i64 %1, ptr %4, align 8, !tbaa !8
  %5 = load ptr, ptr %3, align 8, !tbaa !239
  %6 = load i64, ptr %4, align 8, !tbaa !8
  %7 = getelementptr inbounds nuw [2 x i64], ptr %5, i64 0, i64 %6
  ret ptr %7
}

; Function Attrs: noinline noreturn nounwind uwtable
define linkonce_odr hidden void @__clang_call_terminate(ptr noundef %0) #4 comdat {
  %2 = call ptr @__cxa_begin_catch(ptr %0) #12
  call void @_ZSt9terminatev() #13
  unreachable
}

; Function Attrs: mustprogress nounwind uwtable
define linkonce_odr { i64, i64 } @_ZN5arrow19GenericBasicDecimalINS_15BasicDecimal128ELi128ELi2EE16WordsFromLowBitsIiEESt5arrayImLm2EET_(i32 noundef %0) #0 comdat align 2 {
  %2 = alloca %"struct.std::array", align 8
  %3 = alloca i32, align 4
  %4 = alloca ptr, align 8
  %5 = alloca ptr, align 8
  %6 = alloca ptr, align 8
  %7 = alloca ptr, align 8
  store i32 %0, ptr %3, align 4, !tbaa !30
  call void @llvm.memset.p0.i64(ptr align 8 %2, i8 0, i64 16, i1 false)
  %8 = load i32, ptr %3, align 4, !tbaa !30
  %9 = icmp slt i32 %8, 0
  br i1 %9, label %10, label %27

10:                                               ; preds = %1
  call void @llvm.lifetime.start.p0(i64 8, ptr %4) #12
  store ptr %2, ptr %4, align 8, !tbaa !10
  call void @llvm.lifetime.start.p0(i64 8, ptr %5) #12
  %11 = load ptr, ptr %4, align 8, !tbaa !10
  %12 = call noundef ptr @_ZNSt5arrayImLm2EE5beginEv(ptr noundef nonnull align 8 dereferenceable(16) %11) #14
  store ptr %12, ptr %5, align 8, !tbaa !239
  call void @llvm.lifetime.start.p0(i64 8, ptr %6) #12
  %13 = load ptr, ptr %4, align 8, !tbaa !10
  %14 = call noundef ptr @_ZNSt5arrayImLm2EE3endEv(ptr noundef nonnull align 8 dereferenceable(16) %13) #14
  store ptr %14, ptr %6, align 8, !tbaa !239
  br label %15

15:                                               ; preds = %23, %10
  %16 = load ptr, ptr %5, align 8, !tbaa !239
  %17 = load ptr, ptr %6, align 8, !tbaa !239
  %18 = icmp ne ptr %16, %17
  br i1 %18, label %20, label %19

19:                                               ; preds = %15
  call void @llvm.lifetime.end.p0(i64 8, ptr %6) #12
  call void @llvm.lifetime.end.p0(i64 8, ptr %5) #12
  call void @llvm.lifetime.end.p0(i64 8, ptr %4) #12
  br label %26

20:                                               ; preds = %15
  call void @llvm.lifetime.start.p0(i64 8, ptr %7) #12
  %21 = load ptr, ptr %5, align 8, !tbaa !239
  store ptr %21, ptr %7, align 8, !tbaa !239
  %22 = load ptr, ptr %7, align 8, !tbaa !239
  store i64 -1, ptr %22, align 8, !tbaa !8
  call void @llvm.lifetime.end.p0(i64 8, ptr %7) #12
  br label %23

23:                                               ; preds = %20
  %24 = load ptr, ptr %5, align 8, !tbaa !239
  %25 = getelementptr inbounds nuw i64, ptr %24, i32 1
  store ptr %25, ptr %5, align 8, !tbaa !239
  br label %15

26:                                               ; preds = %19
  br label %27

27:                                               ; preds = %26, %1
  %28 = load i32, ptr %3, align 4, !tbaa !30
  %29 = sext i32 %28 to i64
  %30 = call noundef nonnull align 8 dereferenceable(8) ptr @_ZNSt5arrayImLm2EEixEm(ptr noundef nonnull align 8 dereferenceable(16) %2, i64 noundef 0) #12
  store i64 %29, ptr %30, align 8, !tbaa !8
  %31 = getelementptr inbounds nuw %"struct.std::array", ptr %2, i32 0, i32 0
  %32 = load { i64, i64 }, ptr %31, align 8
  ret { i64, i64 } %32
}

; Function Attrs: mustprogress nounwind uwtable
define linkonce_odr noundef nonnull align 8 dereferenceable(8) ptr @_ZNKSt5arrayImLm2EEixEm(ptr noundef nonnull align 8 dereferenceable(16) %0, i64 noundef %1) #0 comdat align 2 {
  %3 = alloca ptr, align 8
  %4 = alloca i64, align 8
  store ptr %0, ptr %3, align 8, !tbaa !10
  store i64 %1, ptr %4, align 8, !tbaa !8
  %5 = load ptr, ptr %3, align 8
  %6 = getelementptr inbounds nuw %"struct.std::array", ptr %5, i32 0, i32 0
  %7 = load i64, ptr %4, align 8, !tbaa !8
  %8 = call noundef nonnull align 8 dereferenceable(8) ptr @_ZNSt14__array_traitsImLm2EE6_S_refERA2_Kmm(ptr noundef nonnull align 8 dereferenceable(16) %6, i64 noundef %7) #12
  ret ptr %8
}

; Function Attrs: mustprogress nounwind uwtable
define linkonce_odr void @_ZN5arrow19GenericBasicDecimalINS_15BasicDecimal128ELi128ELi2EEC2IiiEET_(ptr noundef nonnull align 8 dereferenceable(16) %0, i32 noundef %1) unnamed_addr #0 comdat align 2 personality ptr @__gxx_personality_v0 {
  %3 = alloca ptr, align 8
  %4 = alloca i32, align 4
  store ptr %0, ptr %3, align 8, !tbaa !3
  store i32 %1, ptr %4, align 4, !tbaa !30
  %5 = load ptr, ptr %3, align 8
  %6 = load i32, ptr %4, align 4, !tbaa !30
  %7 = invoke { i64, i64 } @_ZN5arrow19GenericBasicDecimalINS_15BasicDecimal128ELi128ELi2EE16WordsFromLowBitsIiEESt5arrayImLm2EET_(i32 noundef %6)
          to label %8 unwind label %14

8:                                                ; preds = %2
  %9 = getelementptr inbounds nuw %"struct.std::array", ptr %5, i32 0, i32 0
  %10 = getelementptr inbounds nuw { i64, i64 }, ptr %9, i32 0, i32 0
  %11 = extractvalue { i64, i64 } %7, 0
  store i64 %11, ptr %10, align 8
  %12 = getelementptr inbounds nuw { i64, i64 }, ptr %9, i32 0, i32 1
  %13 = extractvalue { i64, i64 } %7, 1
  store i64 %13, ptr %12, align 8
  ret void

14:                                               ; preds = %2
  %15 = landingpad { ptr, i32 }
          catch ptr null
  %16 = extractvalue { ptr, i32 } %15, 0
  call void @__clang_call_terminate(ptr %16) #13
  unreachable
}

; Function Attrs: inlinehint mustprogress nounwind uwtable
define internal noundef i32 @_ZN5arrow8bit_utilL17CountLeadingZerosEm(i64 noundef %0) #3 {
  %2 = alloca i32, align 4
  %3 = alloca i64, align 8
  store i64 %0, ptr %3, align 8, !tbaa !8
  %4 = load i64, ptr %3, align 8, !tbaa !8
  %5 = icmp eq i64 %4, 0
  br i1 %5, label %6, label %7

6:                                                ; preds = %1
  store i32 64, ptr %2, align 4
  br label %11

7:                                                ; preds = %1
  %8 = load i64, ptr %3, align 8, !tbaa !8
  %9 = call i64 @llvm.ctlz.i64(i64 %8, i1 true)
  %10 = trunc i64 %9 to i32
  store i32 %10, ptr %2, align 4
  br label %11

11:                                               ; preds = %7, %6
  %12 = load i32, ptr %2, align 4
  ret i32 %12
}

; Function Attrs: mustprogress nounwind uwtable
define linkonce_odr noundef i64 @_ZNK5arrow15BasicDecimal1288low_bitsEv(ptr noundef nonnull align 8 dereferenceable(16) %0) #0 comdat align 2 {
  %2 = alloca ptr, align 8
  store ptr %0, ptr %2, align 8, !tbaa !154
  %3 = load ptr, ptr %2, align 8
  %4 = getelementptr inbounds nuw %"class.arrow::GenericBasicDecimal", ptr %3, i32 0, i32 0
  %5 = call noundef nonnull align 8 dereferenceable(8) ptr @_ZNKSt5arrayImLm2EEixEm(ptr noundef nonnull align 8 dereferenceable(16) %4, i64 noundef 0) #12
  %6 = load i64, ptr %5, align 8, !tbaa !8
  ret i64 %6
}

; Function Attrs: mustprogress nounwind uwtable
define linkonce_odr noundef i64 @_ZNK5arrow15BasicDecimal1289high_bitsEv(ptr noundef nonnull align 8 dereferenceable(16) %0) #0 comdat align 2 {
  %2 = alloca ptr, align 8
  store ptr %0, ptr %2, align 8, !tbaa !154
  %3 = load ptr, ptr %2, align 8
  %4 = getelementptr inbounds nuw %"class.arrow::GenericBasicDecimal", ptr %3, i32 0, i32 0
  %5 = call noundef nonnull align 8 dereferenceable(8) ptr @_ZNKSt5arrayImLm2EEixEm(ptr noundef nonnull align 8 dereferenceable(16) %4, i64 noundef 1) #12
  %6 = load i64, ptr %5, align 8, !tbaa !8
  ret i64 %6
}

; Function Attrs: inlinehint mustprogress nounwind uwtable
define linkonce_odr void @_ZN5arrow15BasicDecimal128CI2NS_19GenericBasicDecimalIS0_Li128ELi2EEEIiiEET_(ptr noundef nonnull align 8 dereferenceable(16) %0, i32 noundef %1) unnamed_addr #3 comdat align 2 {
  %3 = alloca ptr, align 8
  %4 = alloca i32, align 4
  store ptr %0, ptr %3, align 8, !tbaa !154
  store i32 %1, ptr %4, align 4, !tbaa !30
  %5 = load ptr, ptr %3, align 8
  %6 = load i32, ptr %4, align 4, !tbaa !30
  call void @_ZN5arrow19GenericBasicDecimalINS_15BasicDecimal128ELi128ELi2EEC2IiiEET_(ptr noundef nonnull align 8 dereferenceable(16) %5, i32 noundef %6) #12
  ret void
}

; Function Attrs: mustprogress uwtable
define noundef i32 @_ZNK5arrow15BasicDecimal12823CountLeadingBinaryZerosEv(ptr noundef nonnull align 8 dereferenceable(16) %0) #6 align 2 {
  %2 = alloca i32, align 4
  %3 = alloca ptr, align 8
  %4 = alloca %"class.arrow::BasicDecimal128", align 8
  store ptr %0, ptr %3, align 8, !tbaa !154
  %5 = load ptr, ptr %3, align 8
  br label %6

6:                                                ; preds = %7, %1
  br i1 false, label %7, label %8

7:                                                ; preds = %6
  br label %6, !llvm.loop !234

8:                                                ; preds = %6
  br label %9

9:                                                ; preds = %10, %8
  br i1 false, label %10, label %11

10:                                               ; preds = %9
  call void @_ZN5arrow15BasicDecimal128CI2NS_19GenericBasicDecimalIS0_Li128ELi2EEEIiiEET_(ptr noundef nonnull align 8 dereferenceable(16) %4, i32 noundef 0) #12
  br label %9, !llvm.loop !235

11:                                               ; preds = %9
  br label %12

12:                                               ; preds = %13, %11
  br i1 false, label %13, label %14

13:                                               ; preds = %12
  br label %12, !llvm.loop !236

14:                                               ; preds = %12
  %15 = call noundef i64 @_ZNK5arrow15BasicDecimal1289high_bitsEv(ptr noundef nonnull align 8 dereferenceable(16) %5)
  %16 = icmp eq i64 %15, 0
  br i1 %16, label %17, label %21

17:                                               ; preds = %14
  %18 = call noundef i64 @_ZNK5arrow15BasicDecimal1288low_bitsEv(ptr noundef nonnull align 8 dereferenceable(16) %5)
  %19 = call noundef i32 @_ZN5arrow8bit_utilL17CountLeadingZerosEm(i64 noundef %18)
  %20 = add nsw i32 %19, 64
  store i32 %20, ptr %2, align 4
  br label %24

21:                                               ; preds = %14
  %22 = call noundef i64 @_ZNK5arrow15BasicDecimal1289high_bitsEv(ptr noundef nonnull align 8 dereferenceable(16) %5)
  %23 = call noundef i32 @_ZN5arrow8bit_utilL17CountLeadingZerosEm(i64 noundef %22)
  store i32 %23, ptr %2, align 4
  br label %24

24:                                               ; preds = %21, %17
  %25 = load i32, ptr %2, align 4
  ret i32 %25
}