; Function Attrs: mustprogress nofree norecurse nosync nounwind willreturn memory(argmem: read) uwtable
define noundef range(i32 0, 129) i32 @_ZNK5arrow15BasicDecimal12823CountLeadingBinaryZerosEv(ptr noundef nonnull readonly align 8 captures(none) dereferenceable(16) %0) local_unnamed_addr #7 align 2 {
  %2 = getelementptr inbounds nuw i8, ptr %0, i64 8
  %3 = load i64, ptr %2, align 8, !tbaa !7
  %4 = icmp eq i64 %3, 0
  br i1 %4, label %5, label %10

5:                                                ; preds = %1
  %6 = load i64, ptr %0, align 8, !tbaa !7
  %7 = tail call range(i64 0, 65) i64 @llvm.ctlz.i64(i64 %6, i1 false)
  %8 = trunc nuw nsw i64 %7 to i32
  %9 = add nuw nsw i32 %8, 64
  br label %13

10:                                               ; preds = %1
  %11 = tail call range(i64 0, 65) i64 @llvm.ctlz.i64(i64 %3, i1 true)
  %12 = trunc nuw nsw i64 %11 to i32
  br label %13

13:                                               ; preds = %10, %5
  %.0 = phi i32 [ %9, %5 ], [ %12, %10 ]
  ret i32 %.0
}